target datalayout = "e-m:e-p270:32:32-p271:32:32-p272:64:64-i64:64-i128:128-f80:128-n8:16:32:64-S128"
target triple = "x86_64-pc-linux-gnu"

%struct.zskiplistNode = type { ptr, double, ptr, [0 x %struct.zskiplistLevel] }
%struct.zskiplistLevel = type { ptr, i64 }
%struct.zskiplist = type { ptr, ptr, i64, i32 }
%struct.zrangespec = type { double, double, i32, i32 }

; Function Attrs: nounwind uwtable
define dso_local i32 @zslValueLteMax(double noundef %0, ptr noundef %1) #0 {
  %3 = alloca double, align 8
  %4 = alloca ptr, align 8
  store double %0, ptr %3, align 8, !tbaa !9
  store ptr %1, ptr %4, align 8, !tbaa !45
  %5 = load ptr, ptr %4, align 8, !tbaa !45
  %6 = getelementptr inbounds nuw %struct.zrangespec, ptr %5, i32 0, i32 3
  %7 = load i32, ptr %6, align 4, !tbaa !49
  %8 = icmp ne i32 %7, 0
  br i1 %8, label %9, label %16

9:                                                ; preds = %2
  %10 = load double, ptr %3, align 8, !tbaa !9
  %11 = load ptr, ptr %4, align 8, !tbaa !45
  %12 = getelementptr inbounds nuw %struct.zrangespec, ptr %11, i32 0, i32 1
  %13 = load double, ptr %12, align 8, !tbaa !50
  %14 = fcmp olt double %10, %13
  %15 = zext i1 %14 to i32
  br label %23

16:                                               ; preds = %2
  %17 = load double, ptr %3, align 8, !tbaa !9
  %18 = load ptr, ptr %4, align 8, !tbaa !45
  %19 = getelementptr inbounds nuw %struct.zrangespec, ptr %18, i32 0, i32 1
  %20 = load double, ptr %19, align 8, !tbaa !50
  %21 = fcmp ole double %17, %20
  %22 = zext i1 %21 to i32
  br label %23

23:                                               ; preds = %16, %9
  %24 = phi i32 [ %15, %9 ], [ %22, %16 ]
  ret i32 %24
}

; Function Attrs: nounwind uwtable
define dso_local i32 @zslValueGteMin(double noundef %0, ptr noundef %1) #0 {
  %3 = alloca double, align 8
  %4 = alloca ptr, align 8
  store double %0, ptr %3, align 8, !tbaa !9
  store ptr %1, ptr %4, align 8, !tbaa !45
  %5 = load ptr, ptr %4, align 8, !tbaa !45
  %6 = getelementptr inbounds nuw %struct.zrangespec, ptr %5, i32 0, i32 2
  %7 = load i32, ptr %6, align 8, !tbaa !46
  %8 = icmp ne i32 %7, 0
  br i1 %8, label %9, label %16

9:                                                ; preds = %2
  %10 = load double, ptr %3, align 8, !tbaa !9
  %11 = load ptr, ptr %4, align 8, !tbaa !45
  %12 = getelementptr inbounds nuw %struct.zrangespec, ptr %11, i32 0, i32 0
  %13 = load double, ptr %12, align 8, !tbaa !48
  %14 = fcmp ogt double %10, %13
  %15 = zext i1 %14 to i32
  br label %23

16:                                               ; preds = %2
  %17 = load double, ptr %3, align 8, !tbaa !9
  %18 = load ptr, ptr %4, align 8, !tbaa !45
  %19 = getelementptr inbounds nuw %struct.zrangespec, ptr %18, i32 0, i32 0
  %20 = load double, ptr %19, align 8, !tbaa !48
  %21 = fcmp oge double %17, %20
  %22 = zext i1 %21 to i32
  br label %23

23:                                               ; preds = %16, %9
  %24 = phi i32 [ %15, %9 ], [ %22, %16 ]
  ret i32 %24
}

; Function Attrs: nounwind uwtable
define dso_local i32 @zslIsInRange(ptr noundef %0, ptr noundef %1) #0 {
  %3 = alloca i32, align 4
  %4 = alloca ptr, align 8
  %5 = alloca ptr, align 8
  %6 = alloca ptr, align 8
  %7 = alloca i32, align 4
  store ptr %0, ptr %4, align 8, !tbaa !16
  store ptr %1, ptr %5, align 8, !tbaa !45
  call void @llvm.lifetime.start.p0(i64 8, ptr %6) #12
  %8 = load ptr, ptr %5, align 8, !tbaa !45
  %9 = getelementptr inbounds nuw %struct.zrangespec, ptr %8, i32 0, i32 0
  %10 = load double, ptr %9, align 8, !tbaa !48
  %11 = load ptr, ptr %5, align 8, !tbaa !45
  %12 = getelementptr inbounds nuw %struct.zrangespec, ptr %11, i32 0, i32 1
  %13 = load double, ptr %12, align 8, !tbaa !50
  %14 = fcmp ogt double %10, %13
  br i1 %14, label %33, label %15

15:                                               ; preds = %2
  %16 = load ptr, ptr %5, align 8, !tbaa !45
  %17 = getelementptr inbounds nuw %struct.zrangespec, ptr %16, i32 0, i32 0
  %18 = load double, ptr %17, align 8, !tbaa !48
  %19 = load ptr, ptr %5, align 8, !tbaa !45
  %20 = getelementptr inbounds nuw %struct.zrangespec, ptr %19, i32 0, i32 1
  %21 = load double, ptr %20, align 8, !tbaa !50
  %22 = fcmp oeq double %18, %21
  br i1 %22, label %23, label %34

23:                                               ; preds = %15
  %24 = load ptr, ptr %5, align 8, !tbaa !45
  %25 = getelementptr inbounds nuw %struct.zrangespec, ptr %24, i32 0, i32 2
  %26 = load i32, ptr %25, align 8, !tbaa !46
  %27 = icmp ne i32 %26, 0
  br i1 %27, label %33, label %28

28:                                               ; preds = %23
  %29 = load ptr, ptr %5, align 8, !tbaa !45
  %30 = getelementptr inbounds nuw %struct.zrangespec, ptr %29, i32 0, i32 3
  %31 = load i32, ptr %30, align 4, !tbaa !49
  %32 = icmp ne i32 %31, 0
  br i1 %32, label %33, label %34

33:                                               ; preds = %28, %23, %2
  store i32 0, ptr %3, align 4
  store i32 1, ptr %7, align 4
  br label %67

34:                                               ; preds = %28, %15
  %35 = load ptr, ptr %4, align 8, !tbaa !16
  %36 = getelementptr inbounds nuw %struct.zskiplist, ptr %35, i32 0, i32 1
  %37 = load ptr, ptr %36, align 8, !tbaa !28
  store ptr %37, ptr %6, align 8, !tbaa !14
  %38 = load ptr, ptr %6, align 8, !tbaa !14
  %39 = icmp eq ptr %38, null
  br i1 %39, label %47, label %40

40:                                               ; preds = %34
  %41 = load ptr, ptr %6, align 8, !tbaa !14
  %42 = getelementptr inbounds nuw %struct.zskiplistNode, ptr %41, i32 0, i32 1
  %43 = load double, ptr %42, align 8, !tbaa !9
  %44 = load ptr, ptr %5, align 8, !tbaa !45
  %45 = call i32 @zslValueGteMin(double noundef %43, ptr noundef %44)
  %46 = icmp ne i32 %45, 0
  br i1 %46, label %48, label %47

47:                                               ; preds = %40, %34
  store i32 0, ptr %3, align 4
  store i32 1, ptr %7, align 4
  br label %67

48:                                               ; preds = %40
  %49 = load ptr, ptr %4, align 8, !tbaa !16
  %50 = getelementptr inbounds nuw %struct.zskiplist, ptr %49, i32 0, i32 0
  %51 = load ptr, ptr %50, align 8, !tbaa !22
  %52 = getelementptr inbounds nuw %struct.zskiplistNode, ptr %51, i32 0, i32 3
  %53 = getelementptr inbounds [0 x %struct.zskiplistLevel], ptr %52, i64 0, i64 0
  %54 = getelementptr inbounds nuw %struct.zskiplistLevel, ptr %53, i32 0, i32 0
  %55 = load ptr, ptr %54, align 8, !tbaa !23
  store ptr %55, ptr %6, align 8, !tbaa !14
  %56 = load ptr, ptr %6, align 8, !tbaa !14
  %57 = icmp eq ptr %56, null
  br i1 %57, label %65, label %58

58:                                               ; preds = %48
  %59 = load ptr, ptr %6, align 8, !tbaa !14
  %60 = getelementptr inbounds nuw %struct.zskiplistNode, ptr %59, i32 0, i32 1
  %61 = load double, ptr %60, align 8, !tbaa !9
  %62 = load ptr, ptr %5, align 8, !tbaa !45
  %63 = call i32 @zslValueLteMax(double noundef %61, ptr noundef %62)
  %64 = icmp ne i32 %63, 0
  br i1 %64, label %66, label %65

65:                                               ; preds = %58, %48
  store i32 0, ptr %3, align 4
  store i32 1, ptr %7, align 4
  br label %67

66:                                               ; preds = %58
  store i32 1, ptr %3, align 4
  store i32 1, ptr %7, align 4
  br label %67

67:                                               ; preds = %66, %65, %47, %33
  call void @llvm.lifetime.end.p0(i64 8, ptr %6) #12
  %68 = load i32, ptr %3, align 4
  ret i32 %68
}