; Function Attrs: mustprogress nofree norecurse nosync nounwind willreturn memory(read, inaccessiblemem: none) uwtable
define dso_local range(i32 0, 2) i32 @zslIsInRange(ptr noundef readonly captures(none) %0, ptr noundef readonly captures(none) %1) local_unnamed_addr #8 {
  %3 = load double, ptr %1, align 8, !tbaa !43
  %4 = getelementptr inbounds nuw i8, ptr %1, i64 8
  %5 = load double, ptr %4, align 8, !tbaa !45
  %6 = fcmp ogt double %3, %5
  br i1 %6, label %38, label %7

7:                                                ; preds = %2
  %8 = fcmp oeq double %3, %5
  br i1 %8, label %9, label %15

9:                                                ; preds = %7
  %10 = getelementptr inbounds nuw i8, ptr %1, i64 16
  %11 = load i32, ptr %10, align 8, !tbaa !41
  %.not = icmp eq i32 %11, 0
  br i1 %.not, label %12, label %38

12:                                               ; preds = %9
  %13 = getelementptr inbounds nuw i8, ptr %1, i64 20
  %14 = load i32, ptr %13, align 4, !tbaa !44
  %.not18 = icmp eq i32 %14, 0
  br i1 %.not18, label %15, label %38

15:                                               ; preds = %12, %7
  %16 = getelementptr inbounds nuw i8, ptr %0, i64 8
  %17 = load ptr, ptr %16, align 8, !tbaa !19
  %18 = icmp eq ptr %17, null
  br i1 %18, label %38, label %19

19:                                               ; preds = %15
  %20 = getelementptr inbounds nuw i8, ptr %17, i64 8
  %21 = load double, ptr %20, align 8, !tbaa !5
  %22 = getelementptr inbounds nuw i8, ptr %1, i64 16
  %23 = load i32, ptr %22, align 8, !tbaa !41
  %.not.i = icmp eq i32 %23, 0
  %24 = fcmp ule double %21, %3
  %25 = fcmp ult double %21, %3
  %.in.i = select i1 %.not.i, i1 %25, i1 %24
  br i1 %.in.i, label %38, label %26

26:                                               ; preds = %19
  %27 = load ptr, ptr %0, align 8, !tbaa !18
  %28 = getelementptr inbounds nuw i8, ptr %27, i64 24
  %29 = load ptr, ptr %28, align 8, !tbaa !20
  %30 = icmp eq ptr %29, null
  br i1 %30, label %38, label %31

31:                                               ; preds = %26
  %32 = getelementptr inbounds nuw i8, ptr %29, i64 8
  %33 = load double, ptr %32, align 8, !tbaa !5
  %34 = getelementptr inbounds nuw i8, ptr %1, i64 20
  %35 = load i32, ptr %34, align 4, !tbaa !44
  %.not.i21 = icmp eq i32 %35, 0
  %36 = fcmp olt double %33, %5
  %37 = fcmp ole double %33, %5
  %.in.i22 = select i1 %.not.i21, i1 %37, i1 %36
  %spec.select = zext i1 %.in.i22 to i32
  br label %38

38:                                               ; preds = %31, %26, %15, %19, %2, %9, %12
  %.0 = phi i32 [ 0, %12 ], [ 0, %9 ], [ 0, %2 ], [ 0, %19 ], [ 0, %15 ], [ 0, %26 ], [ %spec.select, %31 ]
  ret i32 %.0
}